target datalayout = "e-m:e-p270:32:32-p271:32:32-p272:64:64-i64:64-i128:128-f80:128-n8:16:32:64-S128"
target triple = "x86_64-pc-linux-gnu"

%struct.IPpmd7 = type { ptr, ptr, ptr, ptr, ptr, ptr, ptr, ptr, ptr, ptr, ptr, ptr }
%struct.archive_read = type { %struct.archive, ptr, i32, i64, i64, %struct.archive_read_client, [16 x %struct.archive_read_filter_bidder], ptr, i32, i64, i32, i32, [16 x %struct.archive_format_descriptor], ptr, ptr, ptr, %struct.anon }
%struct.archive = type { i32, i32, ptr, i32, ptr, i32, i32, ptr, %struct.archive_string, ptr, i32, i32, ptr, ptr, i64, i64, i64, i8, i64 }
%struct.archive_string = type { ptr, i64, i64 }
%struct.archive_read_client = type { ptr, ptr, ptr, ptr, ptr, ptr, i32, i32, i64, ptr }
%struct.archive_read_filter_bidder = type { ptr, ptr, ptr }
%struct.archive_format_descriptor = type { ptr, ptr, ptr, ptr, ptr, ptr, ptr, ptr, ptr, ptr, ptr }
%struct.anon = type { ptr, ptr, i32, ptr, ptr }
%struct.rar = type { i32, i64, [2 x i8], [4 x i8], i8, i8, i32, i64, i64, i64, i64, i32, ptr, ptr, i64, i64, [8 x i8], i64, i64, i64, i64, i64, i64, i64, i64, i64, i64, i64, i64, i8, i32, i32, ptr, i32, i8, i8, i64, i32, i8, ptr, i32, i32, i8, %struct.huffman_code, %struct.huffman_code, %struct.huffman_code, %struct.huffman_code, [404 x i8], %struct.lzss, i32, i32, [4 x i32], i32, i32, i8, %struct.rar_filters, i8, i8, i8, i32, %struct.CPpmd7, %struct.CPpmd7z_RangeDec, %struct.IByteIn, i32, ptr, ptr, ptr, ptr, %struct.rar_br, i32 }
%struct.huffman_code = type { ptr, i32, i32, i32, i32, i32, ptr }
%struct.lzss = type { ptr, i32, i64 }
%struct.rar_filters = type { ptr, ptr, ptr, i64, i32, i64, ptr, i64 }
%struct.CPpmd7 = type { ptr, ptr, ptr, i32, i32, i32, i32, i32, i32, i32, i32, i32, ptr, ptr, ptr, ptr, ptr, i32, [38 x i8], [128 x i8], [38 x i32], [256 x i8], [256 x i8], [256 x i8], %struct.CPpmd_See, [25 x [16 x %struct.CPpmd_See]], [128 x [64 x i16]] }
%struct.CPpmd_See = type { i16, i8, i8 }
%struct.CPpmd7z_RangeDec = type { %struct.IPpmd7_RangeDec, i32, i32, i32, i32, ptr }
%struct.IPpmd7_RangeDec = type { ptr, ptr, ptr }
%struct.IByteIn = type { ptr, ptr }
%struct.rar_br = type { i64, i32, i64, ptr }
%struct.rar_filter = type { ptr, [8 x i32], ptr, i32, i64, i32, i32, i32, ptr }
%struct.rar_program_code = type { ptr, i32, ptr, i32, i64, i32, i32, ptr }

@__archive_ppmd7_functions = external constant %struct.IPpmd7, align 8

; Function Attrs: nounwind uwtable
define internal void @delete_program_code(ptr noundef %0) #0 {
  %2 = alloca ptr, align 8
  %3 = alloca ptr, align 8
  store ptr %0, ptr %2, align 8
  br label %4

4:                                                ; preds = %7, %1
  %5 = load ptr, ptr %2, align 8
  %6 = icmp ne ptr %5, null
  br i1 %6, label %7, label %19

7:                                                ; preds = %4
  %8 = load ptr, ptr %2, align 8
  %9 = getelementptr inbounds %struct.rar_program_code, ptr %8, i32 0, i32 7
  %10 = load ptr, ptr %9, align 8
  store ptr %10, ptr %3, align 8
  %11 = load ptr, ptr %2, align 8
  %12 = getelementptr inbounds %struct.rar_program_code, ptr %11, i32 0, i32 0
  %13 = load ptr, ptr %12, align 8
  call void @free(ptr noundef %13) #12
  %14 = load ptr, ptr %2, align 8
  %15 = getelementptr inbounds %struct.rar_program_code, ptr %14, i32 0, i32 2
  %16 = load ptr, ptr %15, align 8
  call void @free(ptr noundef %16) #12
  %17 = load ptr, ptr %2, align 8
  call void @free(ptr noundef %17) #12
  %18 = load ptr, ptr %3, align 8
  store ptr %18, ptr %2, align 8
  br label %4, !llvm.loop !58

19:                                               ; preds = %4
  ret void
}

; Function Attrs: nounwind uwtable
define internal void @delete_filter(ptr noundef %0) #0 {
  %2 = alloca ptr, align 8
  %3 = alloca ptr, align 8
  store ptr %0, ptr %2, align 8
  br label %4

4:                                                ; preds = %7, %1
  %5 = load ptr, ptr %2, align 8
  %6 = icmp ne ptr %5, null
  br i1 %6, label %7, label %16

7:                                                ; preds = %4
  %8 = load ptr, ptr %2, align 8
  %9 = getelementptr inbounds %struct.rar_filter, ptr %8, i32 0, i32 8
  %10 = load ptr, ptr %9, align 8
  store ptr %10, ptr %3, align 8
  %11 = load ptr, ptr %2, align 8
  %12 = getelementptr inbounds %struct.rar_filter, ptr %11, i32 0, i32 2
  %13 = load ptr, ptr %12, align 8
  call void @free(ptr noundef %13) #12
  %14 = load ptr, ptr %2, align 8
  call void @free(ptr noundef %14) #12
  %15 = load ptr, ptr %3, align 8
  store ptr %15, ptr %2, align 8
  br label %4, !llvm.loop !34

16:                                               ; preds = %4
  ret void
}

; Function Attrs: nounwind uwtable
define internal void @clear_filters(ptr noundef %0) #0 {
  %2 = alloca ptr, align 8
  store ptr %0, ptr %2, align 8
  %3 = load ptr, ptr %2, align 8
  %4 = getelementptr inbounds %struct.rar_filters, ptr %3, i32 0, i32 2
  %5 = load ptr, ptr %4, align 8
  call void @delete_filter(ptr noundef %5)
  %6 = load ptr, ptr %2, align 8
  %7 = getelementptr inbounds %struct.rar_filters, ptr %6, i32 0, i32 1
  %8 = load ptr, ptr %7, align 8
  call void @delete_program_code(ptr noundef %8)
  %9 = load ptr, ptr %2, align 8
  %10 = getelementptr inbounds %struct.rar_filters, ptr %9, i32 0, i32 0
  %11 = load ptr, ptr %10, align 8
  call void @free(ptr noundef %11) #12
  ret void
}

; Function Attrs: nounwind uwtable
define internal void @free_codes(ptr noundef %0) #0 {
  %2 = alloca ptr, align 8
  %3 = alloca ptr, align 8
  store ptr %0, ptr %2, align 8
  %4 = load ptr, ptr %2, align 8
  %5 = getelementptr inbounds %struct.archive_read, ptr %4, i32 0, i32 13
  %6 = load ptr, ptr %5, align 8
  %7 = getelementptr inbounds %struct.archive_format_descriptor, ptr %6, i32 0, i32 0
  %8 = load ptr, ptr %7, align 8
  store ptr %8, ptr %3, align 8
  %9 = load ptr, ptr %3, align 8
  %10 = getelementptr inbounds %struct.rar, ptr %9, i32 0, i32 43
  %11 = getelementptr inbounds %struct.huffman_code, ptr %10, i32 0, i32 0
  %12 = load ptr, ptr %11, align 8
  call void @free(ptr noundef %12) #12
  %13 = load ptr, ptr %3, align 8
  %14 = getelementptr inbounds %struct.rar, ptr %13, i32 0, i32 44
  %15 = getelementptr inbounds %struct.huffman_code, ptr %14, i32 0, i32 0
  %16 = load ptr, ptr %15, align 8
  call void @free(ptr noundef %16) #12
  %17 = load ptr, ptr %3, align 8
  %18 = getelementptr inbounds %struct.rar, ptr %17, i32 0, i32 45
  %19 = getelementptr inbounds %struct.huffman_code, ptr %18, i32 0, i32 0
  %20 = load ptr, ptr %19, align 8
  call void @free(ptr noundef %20) #12
  %21 = load ptr, ptr %3, align 8
  %22 = getelementptr inbounds %struct.rar, ptr %21, i32 0, i32 46
  %23 = getelementptr inbounds %struct.huffman_code, ptr %22, i32 0, i32 0
  %24 = load ptr, ptr %23, align 8
  call void @free(ptr noundef %24) #12
  %25 = load ptr, ptr %3, align 8
  %26 = getelementptr inbounds %struct.rar, ptr %25, i32 0, i32 43
  %27 = getelementptr inbounds %struct.huffman_code, ptr %26, i32 0, i32 6
  %28 = load ptr, ptr %27, align 8
  call void @free(ptr noundef %28) #12
  %29 = load ptr, ptr %3, align 8
  %30 = getelementptr inbounds %struct.rar, ptr %29, i32 0, i32 44
  %31 = getelementptr inbounds %struct.huffman_code, ptr %30, i32 0, i32 6
  %32 = load ptr, ptr %31, align 8
  call void @free(ptr noundef %32) #12
  %33 = load ptr, ptr %3, align 8
  %34 = getelementptr inbounds %struct.rar, ptr %33, i32 0, i32 45
  %35 = getelementptr inbounds %struct.huffman_code, ptr %34, i32 0, i32 6
  %36 = load ptr, ptr %35, align 8
  call void @free(ptr noundef %36) #12
  %37 = load ptr, ptr %3, align 8
  %38 = getelementptr inbounds %struct.rar, ptr %37, i32 0, i32 46
  %39 = getelementptr inbounds %struct.huffman_code, ptr %38, i32 0, i32 6
  %40 = load ptr, ptr %39, align 8
  call void @free(ptr noundef %40) #12
  %41 = load ptr, ptr %3, align 8
  %42 = getelementptr inbounds %struct.rar, ptr %41, i32 0, i32 43
  call void @llvm.memset.p0.i64(ptr align 8 %42, i8 0, i64 40, i1 false)
  %43 = load ptr, ptr %3, align 8
  %44 = getelementptr inbounds %struct.rar, ptr %43, i32 0, i32 44
  call void @llvm.memset.p0.i64(ptr align 8 %44, i8 0, i64 40, i1 false)
  %45 = load ptr, ptr %3, align 8
  %46 = getelementptr inbounds %struct.rar, ptr %45, i32 0, i32 45
  call void @llvm.memset.p0.i64(ptr align 8 %46, i8 0, i64 40, i1 false)
  %47 = load ptr, ptr %3, align 8
  %48 = getelementptr inbounds %struct.rar, ptr %47, i32 0, i32 46
  call void @llvm.memset.p0.i64(ptr align 8 %48, i8 0, i64 40, i1 false)
  ret void
}

; Function Attrs: nounwind uwtable
define internal i32 @archive_read_format_rar_cleanup(ptr noundef %0) #0 {
  %2 = alloca ptr, align 8
  %3 = alloca ptr, align 8
  store ptr %0, ptr %2, align 8
  %4 = load ptr, ptr %2, align 8
  %5 = getelementptr inbounds %struct.archive_read, ptr %4, i32 0, i32 13
  %6 = load ptr, ptr %5, align 8
  %7 = getelementptr inbounds %struct.archive_format_descriptor, ptr %6, i32 0, i32 0
  %8 = load ptr, ptr %7, align 8
  store ptr %8, ptr %3, align 8
  %9 = load ptr, ptr %2, align 8
  call void @free_codes(ptr noundef %9)
  %10 = load ptr, ptr %3, align 8
  %11 = getelementptr inbounds %struct.rar, ptr %10, i32 0, i32 55
  call void @clear_filters(ptr noundef %11)
  %12 = load ptr, ptr %3, align 8
  %13 = getelementptr inbounds %struct.rar, ptr %12, i32 0, i32 12
  %14 = load ptr, ptr %13, align 8
  call void @free(ptr noundef %14) #12
  %15 = load ptr, ptr %3, align 8
  %16 = getelementptr inbounds %struct.rar, ptr %15, i32 0, i32 13
  %17 = load ptr, ptr %16, align 8
  call void @free(ptr noundef %17) #12
  %18 = load ptr, ptr %3, align 8
  %19 = getelementptr inbounds %struct.rar, ptr %18, i32 0, i32 39
  %20 = load ptr, ptr %19, align 8
  call void @free(ptr noundef %20) #12
  %21 = load ptr, ptr %3, align 8
  %22 = getelementptr inbounds %struct.rar, ptr %21, i32 0, i32 32
  %23 = load ptr, ptr %22, align 8
  call void @free(ptr noundef %23) #12
  %24 = load ptr, ptr %3, align 8
  %25 = getelementptr inbounds %struct.rar, ptr %24, i32 0, i32 48
  %26 = getelementptr inbounds %struct.lzss, ptr %25, i32 0, i32 0
  %27 = load ptr, ptr %26, align 8
  call void @free(ptr noundef %27) #12
  %28 = getelementptr inbounds %struct.IPpmd7, ptr @__archive_ppmd7_functions, i32 0, i32 2
  %29 = load ptr, ptr %28, align 8
  %30 = load ptr, ptr %3, align 8
  %31 = getelementptr inbounds %struct.rar, ptr %30, i32 0, i32 60
  call void %29(ptr noundef %31)
  %32 = load ptr, ptr %3, align 8
  call void @free(ptr noundef %32) #12
  %33 = load ptr, ptr %2, align 8
  %34 = getelementptr inbounds %struct.archive_read, ptr %33, i32 0, i32 13
  %35 = load ptr, ptr %34, align 8
  %36 = getelementptr inbounds %struct.archive_format_descriptor, ptr %35, i32 0, i32 0
  store ptr null, ptr %36, align 8
  ret i32 0
}