; Function Attrs: nounwind uwtable
define internal noundef i32 @archive_read_format_rar_cleanup(ptr noundef readonly captures(none) %0) #0 {
  %2 = getelementptr inbounds nuw i8, ptr %0, i64 2072
  %3 = load ptr, ptr %2, align 8
  %4 = load ptr, ptr %3, align 8
  %5 = getelementptr inbounds nuw i8, ptr %4, i64 280
  %6 = load ptr, ptr %5, align 8
  tail call void @free(ptr noundef %6) #19
  %7 = getelementptr inbounds nuw i8, ptr %4, i64 320
  %8 = load ptr, ptr %7, align 8
  tail call void @free(ptr noundef %8) #19
  %9 = getelementptr inbounds nuw i8, ptr %4, i64 360
  %10 = load ptr, ptr %9, align 8
  tail call void @free(ptr noundef %10) #19
  %11 = getelementptr inbounds nuw i8, ptr %4, i64 400
  %12 = load ptr, ptr %11, align 8
  tail call void @free(ptr noundef %12) #19
  %13 = getelementptr inbounds nuw i8, ptr %4, i64 312
  %14 = load ptr, ptr %13, align 8
  tail call void @free(ptr noundef %14) #19
  %15 = getelementptr inbounds nuw i8, ptr %4, i64 352
  %16 = load ptr, ptr %15, align 8
  tail call void @free(ptr noundef %16) #19
  %17 = getelementptr inbounds nuw i8, ptr %4, i64 392
  %18 = load ptr, ptr %17, align 8
  tail call void @free(ptr noundef %18) #19
  %19 = getelementptr inbounds nuw i8, ptr %4, i64 432
  %20 = load ptr, ptr %19, align 8
  tail call void @free(ptr noundef %20) #19
  tail call void @llvm.memset.p0.i64(ptr noundef nonnull align 8 dereferenceable(160) %5, i8 0, i64 160, i1 false)
  %21 = getelementptr inbounds nuw i8, ptr %4, i64 928
  %22 = load ptr, ptr %21, align 8
  %.not5.i.i = icmp eq ptr %22, null
  br i1 %.not5.i.i, label %delete_filter.exit.i, label %.lr.ph.i.i

.lr.ph.i.i:                                       ; preds = %1, %.lr.ph.i.i
  %.06.i.i = phi ptr [ %24, %.lr.ph.i.i ], [ %22, %1 ]
  %23 = getelementptr inbounds nuw i8, ptr %.06.i.i, i64 80
  %24 = load ptr, ptr %23, align 8
  %25 = getelementptr inbounds nuw i8, ptr %.06.i.i, i64 40
  %26 = load ptr, ptr %25, align 8
  tail call void @free(ptr noundef %26) #19
  tail call void @free(ptr noundef nonnull %.06.i.i) #19
  %.not.i.i = icmp eq ptr %24, null
  br i1 %.not.i.i, label %delete_filter.exit.i, label %.lr.ph.i.i, !llvm.loop !12

delete_filter.exit.i:                             ; preds = %.lr.ph.i.i, %1
  %27 = getelementptr inbounds nuw i8, ptr %4, i64 920
  %28 = load ptr, ptr %27, align 8
  %.not6.i.i = icmp eq ptr %28, null
  br i1 %.not6.i.i, label %clear_filters.exit, label %.lr.ph.i3.i

.lr.ph.i3.i:                                      ; preds = %delete_filter.exit.i, %.lr.ph.i3.i
  %.07.i.i = phi ptr [ %30, %.lr.ph.i3.i ], [ %28, %delete_filter.exit.i ]
  %29 = getelementptr inbounds nuw i8, ptr %.07.i.i, i64 48
  %30 = load ptr, ptr %29, align 8
  %31 = load ptr, ptr %.07.i.i, align 8
  tail call void @free(ptr noundef %31) #19
  %32 = getelementptr inbounds nuw i8, ptr %.07.i.i, i64 16
  %33 = load ptr, ptr %32, align 8
  tail call void @free(ptr noundef %33) #19
  tail call void @free(ptr noundef nonnull %.07.i.i) #19
  %.not.i4.i = icmp eq ptr %30, null
  br i1 %.not.i4.i, label %clear_filters.exit, label %.lr.ph.i3.i, !llvm.loop !20

clear_filters.exit:                               ; preds = %.lr.ph.i3.i, %delete_filter.exit.i
  %34 = getelementptr inbounds nuw i8, ptr %4, i64 912
  %35 = load ptr, ptr %34, align 8
  tail call void @free(ptr noundef %35) #19
  %36 = getelementptr inbounds nuw i8, ptr %4, i64 72
  %37 = load ptr, ptr %36, align 8
  tail call void @free(ptr noundef %37) #19
  %38 = getelementptr inbounds nuw i8, ptr %4, i64 80
  %39 = load ptr, ptr %38, align 8
  tail call void @free(ptr noundef %39) #19
  %40 = getelementptr inbounds nuw i8, ptr %4, i64 256
  %41 = load ptr, ptr %40, align 8
  tail call void @free(ptr noundef %41) #19
  %42 = getelementptr inbounds nuw i8, ptr %4, i64 224
  %43 = load ptr, ptr %42, align 8
  tail call void @free(ptr noundef %43) #19
  %44 = getelementptr inbounds nuw i8, ptr %4, i64 848
  %45 = load ptr, ptr %44, align 8
  tail call void @free(ptr noundef %45) #19
  %46 = load ptr, ptr getelementptr inbounds nuw (i8, ptr @__archive_ppmd7_functions, i64 16), align 8
  %47 = getelementptr inbounds nuw i8, ptr %4, i64 984
  tail call void %46(ptr noundef nonnull %47) #19
  tail call void @free(ptr noundef %4) #19
  %48 = load ptr, ptr %2, align 8
  store ptr null, ptr %48, align 8
  ret i32 0
}